(dp0
S'OriginalConfig'
p1
ccopy_reg
_reconstructor
p2
(cWMCore.Configuration
Configuration
p3
c__builtin__
object
p4
Ntp5
Rp6
(dp7
S'Site'
p8
g2
(cWMCore.Configuration
ConfigSection
p9
g4
Ntp10
Rp11
(dp12
S'_internal_skipChecks'
p13
I00
sS'_internal_documentation'
p14
S''
p15
sS'_internal_settings'
p16
c__builtin__
set
p17
((lp18
S'storageSite'
p19
atp20
Rp21
sS'_internal_name'
p22
g8
sS'_internal_docstrings'
p23
(dp24
sS'_internal_children'
p25
g17
((lp26
tp27
Rp28
sg19
S'T2_BE_IIHE'
p29
sS'_internal_parent_ref'
p30
NsbsS'_internal_sections'
p31
(lp32
S'General'
p33
aS'JobType'
p34
aS'Data'
p35
aS'User'
p36
ag8
asg36
g2
(g9
g4
Ntp37
Rp38
(dp39
g13
I00
sg14
g15
sg16
g17
((lp40
S'voGroup'
p41
atp42
Rp43
sg22
g36
sg41
S'becms'
p44
sg23
(dp45
sg25
g17
((lp46
tp47
Rp48
sg30
Nsbsg33
g2
(g9
g4
Ntp49
Rp50
(dp51
g13
I00
sg14
g15
sg16
g17
((lp52
S'transferLogs'
p53
aS'requestName'
p54
atp55
Rp56
sg22
g33
sg23
(dp57
sg25
g17
((lp58
tp59
Rp60
sg54
S'MC_H2DW_2017UL_20250417'
p61
sg30
Nsg53
I01
sbsg35
g2
(g9
g4
Ntp62
Rp63
(dp64
S'outputDatasetTag'
p65
S'H2DW_2017UL_20250417'
p66
sg13
I00
sS'unitsPerJob'
p67
I200
sg14
g15
sg16
g17
((lp68
g65
aS'publication'
p69
ag67
aS'splitting'
p70
aS'outLFNDirBase'
p71
aS'outputPrimaryDataset'
p72
aS'totalUnits'
p73
atp74
Rp75
sg71
S'/store/user/kakang/Analysis/Simulation/'
p76
sg22
g35
sg70
S'EventBased'
p77
sg23
(dp78
sg25
g17
((lp79
tp80
Rp81
sg69
I00
sg72
S'MinBias'
p82
sg30
Nsg73
I100000
sbsg34
g2
(g9
g4
Ntp83
Rp84
(dp85
g13
I00
sg14
g15
sg16
g17
((lp86
S'psetName'
p87
aS'pluginName'
p88
atp89
Rp90
sg22
g34
sg23
(dp91
sg88
S'PrivateMC'
p92
sg25
g17
((lp93
tp94
Rp95
sg87
S'./LHEGEN_cfg.py'
p96
sg30
Nsbsbsg41
g44
sS'Server'
p97
S'cmsweb.cern.ch'
p98
sS'instance'
p99
S'prod'
p100
sS'RequestName'
p101
V250418_141832:kakang_crab_MC_H2DW_2017UL_20250417
p102
sS'voRole'
p103
S'NULL'
p104
sS'Port'
p105
g15
s.